target datalayout = "e-m:e-p270:32:32-p271:32:32-p272:64:64-i64:64-i128:128-f80:128-n8:16:32:64-S128"
target triple = "x86_64-pc-linux-gnu"

%"struct.Luau::CodeGen::IrConst" = type { i8, %union.anon.0 }
%union.anon.0 = type { double }
%"class.std::__cxx11::basic_string" = type { %"struct.std::__cxx11::basic_string<char>::_Alloc_hider", i64, %union.anon }
%"struct.std::__cxx11::basic_string<char>::_Alloc_hider" = type { ptr }
%union.anon = type { i64, [8 x i8] }

@.str.166 = private unnamed_addr constant [4 x i8] c"%di\00", align 1
@.str.167 = private unnamed_addr constant [4 x i8] c"%uu\00", align 1
@.str.168 = private unnamed_addr constant [4 x i8] c"nan\00", align 1
@.str.169 = private unnamed_addr constant [6 x i8] c"%.17g\00", align 1
@.str.230 = private unnamed_addr constant [5 x i8] c"tnil\00", align 1
@.str.231 = private unnamed_addr constant [9 x i8] c"tboolean\00", align 1
@.str.232 = private unnamed_addr constant [15 x i8] c"tlightuserdata\00", align 1
@.str.233 = private unnamed_addr constant [8 x i8] c"tnumber\00", align 1
@.str.234 = private unnamed_addr constant [8 x i8] c"tvector\00", align 1
@.str.235 = private unnamed_addr constant [8 x i8] c"tstring\00", align 1
@.str.236 = private unnamed_addr constant [7 x i8] c"ttable\00", align 1
@.str.237 = private unnamed_addr constant [10 x i8] c"tfunction\00", align 1
@.str.238 = private unnamed_addr constant [10 x i8] c"tuserdata\00", align 1
@.str.239 = private unnamed_addr constant [8 x i8] c"tthread\00", align 1
@.str.240 = private unnamed_addr constant [8 x i8] c"tbuffer\00", align 1
@.str.241 = private unnamed_addr constant [7 x i8] c"tproto\00", align 1
@.str.242 = private unnamed_addr constant [7 x i8] c"tupval\00", align 1
@.str.243 = private unnamed_addr constant [9 x i8] c"tdeadkey\00", align 1
@.str.256 = private unnamed_addr constant [21 x i8] c"basic_string::append\00", align 1

; Function Attrs: mustprogress nounwind uwtable
define linkonce_odr dso_local noundef i64 @_ZNKSt15__new_allocatorIcE11_M_max_sizeEv(ptr noundef nonnull align 1 dereferenceable(1) %0) #0 comdat align 2 {
  %2 = alloca ptr, align 8
  store ptr %0, ptr %2, align 8, !tbaa !233
  ret i64 9223372036854775807
}

; Function Attrs: mustprogress nounwind uwtable
define linkonce_odr dso_local noundef i64 @_ZNKSt15__new_allocatorIcE8max_sizeEv(ptr noundef nonnull align 1 dereferenceable(1) %0) #0 comdat align 2 {
  %2 = alloca ptr, align 8
  store ptr %0, ptr %2, align 8, !tbaa !233
  %3 = load ptr, ptr %2, align 8
  %4 = call noundef i64 @_ZNKSt15__new_allocatorIcE11_M_max_sizeEv(ptr noundef nonnull align 1 dereferenceable(1) %3) #14
  ret i64 %4
}

; Function Attrs: noinline noreturn nounwind uwtable
define linkonce_odr hidden void @__clang_call_terminate(ptr noundef %0) #11 comdat {
  %2 = call ptr @__cxa_begin_catch(ptr %0) #14
  call void @_ZSt9terminatev() #15
  unreachable
}

; Function Attrs: mustprogress nounwind uwtable
define linkonce_odr dso_local noundef i64 @_ZNSt16allocator_traitsISaIcEE8max_sizeERKS0_(ptr noundef nonnull align 1 dereferenceable(1) %0) #0 comdat align 2 {
  %2 = alloca ptr, align 8
  store ptr %0, ptr %2, align 8, !tbaa !231
  %3 = load ptr, ptr %2, align 8, !tbaa !231
  %4 = call noundef i64 @_ZNKSt15__new_allocatorIcE8max_sizeEv(ptr noundef nonnull align 1 dereferenceable(1) %3) #14
  ret i64 %4
}

; Function Attrs: mustprogress nounwind uwtable
define available_externally noundef nonnull align 1 dereferenceable(1) ptr @_ZNKSt7__cxx1112basic_stringIcSt11char_traitsIcESaIcEE16_M_get_allocatorEv(ptr noundef nonnull align 8 dereferenceable(32) %0) #0 align 2 {
  %2 = alloca ptr, align 8
  store ptr %0, ptr %2, align 8, !tbaa !36
  %3 = load ptr, ptr %2, align 8
  %4 = getelementptr inbounds nuw %"class.std::__cxx11::basic_string", ptr %3, i32 0, i32 0
  ret ptr %4
}

; Function Attrs: mustprogress nounwind uwtable
define available_externally noundef i64 @_ZNKSt7__cxx1112basic_stringIcSt11char_traitsIcESaIcEE4sizeEv(ptr noundef nonnull align 8 dereferenceable(32) %0) #0 align 2 {
  %2 = alloca ptr, align 8
  store ptr %0, ptr %2, align 8, !tbaa !36
  %3 = load ptr, ptr %2, align 8
  %4 = getelementptr inbounds nuw %"class.std::__cxx11::basic_string", ptr %3, i32 0, i32 1
  %5 = load i64, ptr %4, align 8, !tbaa !104
  ret i64 %5
}

; Function Attrs: mustprogress nounwind uwtable
define available_externally noundef i64 @_ZNKSt7__cxx1112basic_stringIcSt11char_traitsIcESaIcEE8max_sizeEv(ptr noundef nonnull align 8 dereferenceable(32) %0) #0 align 2 personality ptr @__gxx_personality_v0 {
  %2 = alloca ptr, align 8
  store ptr %0, ptr %2, align 8, !tbaa !36
  %3 = load ptr, ptr %2, align 8
  %4 = invoke noundef nonnull align 1 dereferenceable(1) ptr @_ZNKSt7__cxx1112basic_stringIcSt11char_traitsIcESaIcEE16_M_get_allocatorEv(ptr noundef nonnull align 8 dereferenceable(32) %3)
          to label %5 unwind label %9

5:                                                ; preds = %1
  %6 = call noundef i64 @_ZNSt16allocator_traitsISaIcEE8max_sizeERKS0_(ptr noundef nonnull align 1 dereferenceable(1) %4) #14
  %7 = sub i64 %6, 1
  %8 = udiv i64 %7, 2
  ret i64 %8

9:                                                ; preds = %1
  %10 = landingpad { ptr, i32 }
          catch ptr null
  %11 = extractvalue { ptr, i32 } %10, 0
  call void @__clang_call_terminate(ptr %11) #15
  unreachable
}

; Function Attrs: mustprogress uwtable
define available_externally void @_ZNKSt7__cxx1112basic_stringIcSt11char_traitsIcESaIcEE15_M_check_lengthEmmPKc(ptr noundef nonnull align 8 dereferenceable(32) %0, i64 noundef %1, i64 noundef %2, ptr noundef %3) #1 align 2 {
  %5 = alloca ptr, align 8
  %6 = alloca i64, align 8
  %7 = alloca i64, align 8
  %8 = alloca ptr, align 8
  store ptr %0, ptr %5, align 8, !tbaa !36
  store i64 %1, ptr %6, align 8, !tbaa !39
  store i64 %2, ptr %7, align 8, !tbaa !39
  store ptr %3, ptr %8, align 8, !tbaa !37
  %9 = load ptr, ptr %5, align 8
  %10 = call noundef i64 @_ZNKSt7__cxx1112basic_stringIcSt11char_traitsIcESaIcEE8max_sizeEv(ptr noundef nonnull align 8 dereferenceable(32) %9) #14
  %11 = call noundef i64 @_ZNKSt7__cxx1112basic_stringIcSt11char_traitsIcESaIcEE4sizeEv(ptr noundef nonnull align 8 dereferenceable(32) %9) #14
  %12 = load i64, ptr %6, align 8, !tbaa !39
  %13 = sub i64 %11, %12
  %14 = sub i64 %10, %13
  %15 = load i64, ptr %7, align 8, !tbaa !39
  %16 = icmp ult i64 %14, %15
  br i1 %16, label %17, label %19

17:                                               ; preds = %4
  %18 = load ptr, ptr %8, align 8, !tbaa !37
  call void @_ZSt20__throw_length_errorPKc(ptr noundef %18) #16
  unreachable

19:                                               ; preds = %4
  ret void
}

; Function Attrs: mustprogress nounwind uwtable
define linkonce_odr dso_local noundef i64 @_ZNSt11char_traitsIcE6lengthEPKc(ptr noundef %0) #0 comdat align 2 {
  %2 = alloca ptr, align 8
  store ptr %0, ptr %2, align 8, !tbaa !37
  %3 = load ptr, ptr %2, align 8, !tbaa !37
  %4 = call i64 @strlen(ptr noundef %3) #14
  ret i64 %4
}

; Function Attrs: mustprogress uwtable
define available_externally noundef nonnull align 8 dereferenceable(32) ptr @_ZNSt7__cxx1112basic_stringIcSt11char_traitsIcESaIcEE6appendEPKc(ptr noundef nonnull align 8 dereferenceable(32) %0, ptr noundef %1) #1 align 2 {
  %3 = alloca ptr, align 8
  %4 = alloca ptr, align 8
  %5 = alloca i64, align 8
  store ptr %0, ptr %3, align 8, !tbaa !36
  store ptr %1, ptr %4, align 8, !tbaa !37
  %6 = load ptr, ptr %3, align 8
  call void @llvm.lifetime.start.p0(i64 8, ptr %5) #14
  %7 = load ptr, ptr %4, align 8, !tbaa !37
  %8 = call noundef i64 @_ZNSt11char_traitsIcE6lengthEPKc(ptr noundef %7)
  store i64 %8, ptr %5, align 8, !tbaa !39
  %9 = load i64, ptr %5, align 8, !tbaa !39
  call void @_ZNKSt7__cxx1112basic_stringIcSt11char_traitsIcESaIcEE15_M_check_lengthEmmPKc(ptr noundef nonnull align 8 dereferenceable(32) %6, i64 noundef 0, i64 noundef %9, ptr noundef @.str.256)
  %10 = load ptr, ptr %4, align 8, !tbaa !37
  %11 = load i64, ptr %5, align 8, !tbaa !39
  %12 = call noundef nonnull align 8 dereferenceable(32) ptr @_ZNSt7__cxx1112basic_stringIcSt11char_traitsIcESaIcEE9_M_appendEPKcm(ptr noundef nonnull align 8 dereferenceable(32) %6, ptr noundef %10, i64 noundef %11)
  call void @llvm.lifetime.end.p0(i64 8, ptr %5) #14
  ret ptr %12
}

; Function Attrs: mustprogress nounwind uwtable
define internal noundef ptr @_ZN4Luau7CodeGenL10getTagNameEh(i8 noundef zeroext %0) #0 {
  %2 = alloca ptr, align 8
  %3 = alloca i8, align 1
  store i8 %0, ptr %3, align 1, !tbaa !35
  %4 = load i8, ptr %3, align 1, !tbaa !35
  %5 = zext i8 %4 to i32
  switch i32 %5, label %20 [
    i32 0, label %6
    i32 1, label %7
    i32 2, label %8
    i32 3, label %9
    i32 4, label %10
    i32 5, label %11
    i32 6, label %12
    i32 7, label %13
    i32 8, label %14
    i32 9, label %15
    i32 10, label %16
    i32 11, label %17
    i32 12, label %18
    i32 13, label %19
  ]

6:                                                ; preds = %1
  store ptr @.str.230, ptr %2, align 8
  br label %21

7:                                                ; preds = %1
  store ptr @.str.231, ptr %2, align 8
  br label %21

8:                                                ; preds = %1
  store ptr @.str.232, ptr %2, align 8
  br label %21

9:                                                ; preds = %1
  store ptr @.str.233, ptr %2, align 8
  br label %21

10:                                               ; preds = %1
  store ptr @.str.234, ptr %2, align 8
  br label %21

11:                                               ; preds = %1
  store ptr @.str.235, ptr %2, align 8
  br label %21

12:                                               ; preds = %1
  store ptr @.str.236, ptr %2, align 8
  br label %21

13:                                               ; preds = %1
  store ptr @.str.237, ptr %2, align 8
  br label %21

14:                                               ; preds = %1
  store ptr @.str.238, ptr %2, align 8
  br label %21

15:                                               ; preds = %1
  store ptr @.str.239, ptr %2, align 8
  br label %21

16:                                               ; preds = %1
  store ptr @.str.240, ptr %2, align 8
  br label %21

17:                                               ; preds = %1
  store ptr @.str.241, ptr %2, align 8
  br label %21

18:                                               ; preds = %1
  store ptr @.str.242, ptr %2, align 8
  br label %21

19:                                               ; preds = %1
  store ptr @.str.243, ptr %2, align 8
  br label %21

20:                                               ; preds = %1
  unreachable

21:                                               ; preds = %19, %18, %17, %16, %15, %14, %13, %12, %11, %10, %9, %8, %7, %6
  %22 = load ptr, ptr %2, align 8
  ret ptr %22
}

; Function Attrs: mustprogress uwtable
define dso_local void @_ZN4Luau7CodeGen8toStringERNSt7__cxx1112basic_stringIcSt11char_traitsIcESaIcEEENS0_7IrConstE(ptr noundef nonnull align 8 dereferenceable(32) %0, i8 %1, i64 %2) #1 {
  %4 = alloca %"struct.Luau::CodeGen::IrConst", align 8
  %5 = alloca ptr, align 8
  %6 = getelementptr inbounds nuw { i8, i64 }, ptr %4, i32 0, i32 0
  store i8 %1, ptr %6, align 8
  %7 = getelementptr inbounds nuw { i8, i64 }, ptr %4, i32 0, i32 1
  store i64 %2, ptr %7, align 8
  store ptr %0, ptr %5, align 8, !tbaa !36
  %8 = getelementptr inbounds nuw %"struct.Luau::CodeGen::IrConst", ptr %4, i32 0, i32 0
  %9 = load i8, ptr %8, align 8, !tbaa !55
  switch i8 %9, label %37 [
    i8 0, label %10
    i8 1, label %14
    i8 2, label %18
    i8 3, label %31
  ]

10:                                               ; preds = %3
  %11 = load ptr, ptr %5, align 8, !tbaa !36
  %12 = getelementptr inbounds nuw %"struct.Luau::CodeGen::IrConst", ptr %4, i32 0, i32 1
  %13 = load i32, ptr %12, align 8, !tbaa !35
  call void (ptr, ptr, ...) @_ZN4Luau7CodeGenL6appendERNSt7__cxx1112basic_stringIcSt11char_traitsIcESaIcEEEPKcz(ptr noundef nonnull align 8 dereferenceable(32) %11, ptr noundef @.str.166, i32 noundef %13)
  br label %37

14:                                               ; preds = %3
  %15 = load ptr, ptr %5, align 8, !tbaa !36
  %16 = getelementptr inbounds nuw %"struct.Luau::CodeGen::IrConst", ptr %4, i32 0, i32 1
  %17 = load i32, ptr %16, align 8, !tbaa !35
  call void (ptr, ptr, ...) @_ZN4Luau7CodeGenL6appendERNSt7__cxx1112basic_stringIcSt11char_traitsIcESaIcEEEPKcz(ptr noundef nonnull align 8 dereferenceable(32) %15, ptr noundef @.str.167, i32 noundef %17)
  br label %37

18:                                               ; preds = %3
  %19 = getelementptr inbounds nuw %"struct.Luau::CodeGen::IrConst", ptr %4, i32 0, i32 1
  %20 = load double, ptr %19, align 8, !tbaa !35
  %21 = getelementptr inbounds nuw %"struct.Luau::CodeGen::IrConst", ptr %4, i32 0, i32 1
  %22 = load double, ptr %21, align 8, !tbaa !35
  %23 = fcmp une double %20, %22
  br i1 %23, label %24, label %26

24:                                               ; preds = %18
  %25 = load ptr, ptr %5, align 8, !tbaa !36
  call void (ptr, ptr, ...) @_ZN4Luau7CodeGenL6appendERNSt7__cxx1112basic_stringIcSt11char_traitsIcESaIcEEEPKcz(ptr noundef nonnull align 8 dereferenceable(32) %25, ptr noundef @.str.168)
  br label %30

26:                                               ; preds = %18
  %27 = load ptr, ptr %5, align 8, !tbaa !36
  %28 = getelementptr inbounds nuw %"struct.Luau::CodeGen::IrConst", ptr %4, i32 0, i32 1
  %29 = load double, ptr %28, align 8, !tbaa !35
  call void (ptr, ptr, ...) @_ZN4Luau7CodeGenL6appendERNSt7__cxx1112basic_stringIcSt11char_traitsIcESaIcEEEPKcz(ptr noundef nonnull align 8 dereferenceable(32) %27, ptr noundef @.str.169, double noundef %29)
  br label %30

30:                                               ; preds = %26, %24
  br label %37

31:                                               ; preds = %3
  %32 = load ptr, ptr %5, align 8, !tbaa !36
  %33 = getelementptr inbounds nuw %"struct.Luau::CodeGen::IrConst", ptr %4, i32 0, i32 1
  %34 = load i8, ptr %33, align 8, !tbaa !35
  %35 = call noundef ptr @_ZN4Luau7CodeGenL10getTagNameEh(i8 noundef zeroext %34)
  %36 = call noundef nonnull align 8 dereferenceable(32) ptr @_ZNSt7__cxx1112basic_stringIcSt11char_traitsIcESaIcEE6appendEPKc(ptr noundef nonnull align 8 dereferenceable(32) %32, ptr noundef %35)
  br label %37

37:                                               ; preds = %3, %31, %30, %14, %10
  ret void
}