; Function Attrs: mustprogress uwtable
define dso_local void @_ZN4Luau7CodeGen8toStringERNSt7__cxx1112basic_stringIcSt11char_traitsIcESaIcEEENS0_7IrConstE(ptr noundef nonnull align 8 dereferenceable(32) %0, i8 %1, i64 %2) local_unnamed_addr #1 personality ptr @__gxx_personality_v0 {
  %4 = bitcast i64 %2 to double
  switch i8 %1, label %19 [
    i8 0, label %5
    i8 1, label %6
    i8 2, label %7
    i8 3, label %switch.lookup
  ]

5:                                                ; preds = %3
  %.sroa.2.8.extract.trunc = trunc i64 %2 to i32
  tail call void (ptr, ptr, ...) @_ZN4Luau7CodeGenL6appendERNSt7__cxx1112basic_stringIcSt11char_traitsIcESaIcEEEPKcz(ptr noundef nonnull align 8 dereferenceable(32) %0, ptr noundef nonnull @.str.166, i32 noundef %.sroa.2.8.extract.trunc)
  br label %19

6:                                                ; preds = %3
  %.sroa.2.8.extract.trunc8 = trunc i64 %2 to i32
  tail call void (ptr, ptr, ...) @_ZN4Luau7CodeGenL6appendERNSt7__cxx1112basic_stringIcSt11char_traitsIcESaIcEEEPKcz(ptr noundef nonnull align 8 dereferenceable(32) %0, ptr noundef nonnull @.str.167, i32 noundef %.sroa.2.8.extract.trunc8)
  br label %19

7:                                                ; preds = %3
  %8 = fcmp uno double %4, 0.000000e+00
  br i1 %8, label %9, label %10

9:                                                ; preds = %7
  tail call void (ptr, ptr, ...) @_ZN4Luau7CodeGenL6appendERNSt7__cxx1112basic_stringIcSt11char_traitsIcESaIcEEEPKcz(ptr noundef nonnull align 8 dereferenceable(32) %0, ptr noundef nonnull @.str.168)
  br label %19

10:                                               ; preds = %7
  tail call void (ptr, ptr, ...) @_ZN4Luau7CodeGenL6appendERNSt7__cxx1112basic_stringIcSt11char_traitsIcESaIcEEEPKcz(ptr noundef nonnull align 8 dereferenceable(32) %0, ptr noundef nonnull @.str.169, double noundef %4)
  br label %19

switch.lookup:                                    ; preds = %3
  %sext = shl i64 %2, 56
  %11 = ashr exact i64 %sext, 56
  %switch.gep = getelementptr inbounds [14 x ptr], ptr @switch.table._ZN4Luau7CodeGen8toStringERNSt7__cxx1112basic_stringIcSt11char_traitsIcESaIcEEENS0_7IrConstE, i64 0, i64 %11
  %switch.load = load ptr, ptr %switch.gep, align 8
  %12 = tail call noundef i64 @strlen(ptr noundef nonnull dereferenceable(1) %switch.load) #16
  %13 = getelementptr inbounds nuw i8, ptr %0, i64 8
  %14 = load i64, ptr %13, align 8, !tbaa !26
  %15 = sub i64 4611686018427387903, %14
  %16 = icmp ult i64 %15, %12
  br i1 %16, label %17, label %_ZNSt7__cxx1112basic_stringIcSt11char_traitsIcESaIcEE6appendEPKc.exit

17:                                               ; preds = %switch.lookup
  tail call void @_ZSt20__throw_length_errorPKc(ptr noundef nonnull @.str.256) #17
  unreachable

_ZNSt7__cxx1112basic_stringIcSt11char_traitsIcESaIcEE6appendEPKc.exit: ; preds = %switch.lookup
  %18 = tail call noundef nonnull align 8 dereferenceable(32) ptr @_ZNSt7__cxx1112basic_stringIcSt11char_traitsIcESaIcEE9_M_appendEPKcm(ptr noundef nonnull align 8 dereferenceable(32) %0, ptr noundef nonnull %switch.load, i64 noundef %12)
  br label %19

19:                                               ; preds = %9, %10, %_ZNSt7__cxx1112basic_stringIcSt11char_traitsIcESaIcEE6appendEPKc.exit, %6, %5, %3
  ret void
}